target datalayout = "e-m:e-p270:32:32-p271:32:32-p272:64:64-i64:64-i128:128-f80:128-n8:16:32:64-S128"
target triple = "x86_64-pc-linux-gnu"

%struct.Amap_Man_t_ = type { ptr, ptr, float, float, i32, i32, ptr, ptr, ptr, ptr, ptr, ptr, ptr, ptr, [7 x i32], i32, i32, i32, ptr, ptr, ptr, ptr, ptr, ptr, ptr, ptr, i32, i32, i32, i32 }
%struct.Amap_Cut_t_ = type { i32, [0 x i32] }
%struct.Vec_Int_t_ = type { i32, i32, ptr }

; Function Attrs: inlinehint nounwind uwtable
define internal void @Vec_IntGrow(ptr noundef %0, i32 noundef %1) #3 {
  %3 = alloca ptr, align 8
  %4 = alloca i32, align 4
  store ptr %0, ptr %3, align 8, !tbaa !43
  store i32 %1, ptr %4, align 4, !tbaa !8
  %5 = load ptr, ptr %3, align 8, !tbaa !43
  %6 = getelementptr inbounds nuw %struct.Vec_Int_t_, ptr %5, i32 0, i32 0
  %7 = load i32, ptr %6, align 8, !tbaa !46
  %8 = load i32, ptr %4, align 4, !tbaa !8
  %9 = icmp sge i32 %7, %8
  br i1 %9, label %10, label %11

10:                                               ; preds = %2
  br label %36

11:                                               ; preds = %2
  %12 = load ptr, ptr %3, align 8, !tbaa !43
  %13 = getelementptr inbounds nuw %struct.Vec_Int_t_, ptr %12, i32 0, i32 2
  %14 = load ptr, ptr %13, align 8, !tbaa !47
  %15 = icmp ne ptr %14, null
  br i1 %15, label %16, label %24

16:                                               ; preds = %11
  %17 = load ptr, ptr %3, align 8, !tbaa !43
  %18 = getelementptr inbounds nuw %struct.Vec_Int_t_, ptr %17, i32 0, i32 2
  %19 = load ptr, ptr %18, align 8, !tbaa !47
  %20 = load i32, ptr %4, align 4, !tbaa !8
  %21 = sext i32 %20 to i64
  %22 = mul i64 4, %21
  %23 = call ptr @realloc(ptr noundef %19, i64 noundef %22) #13
  br label %29

24:                                               ; preds = %11
  %25 = load i32, ptr %4, align 4, !tbaa !8
  %26 = sext i32 %25 to i64
  %27 = mul i64 4, %26
  %28 = call noalias ptr @malloc(i64 noundef %27) #11
  br label %29

29:                                               ; preds = %24, %16
  %30 = phi ptr [ %23, %16 ], [ %28, %24 ]
  %31 = load ptr, ptr %3, align 8, !tbaa !43
  %32 = getelementptr inbounds nuw %struct.Vec_Int_t_, ptr %31, i32 0, i32 2
  store ptr %30, ptr %32, align 8, !tbaa !47
  %33 = load i32, ptr %4, align 4, !tbaa !8
  %34 = load ptr, ptr %3, align 8, !tbaa !43
  %35 = getelementptr inbounds nuw %struct.Vec_Int_t_, ptr %34, i32 0, i32 0
  store i32 %33, ptr %35, align 8, !tbaa !46
  br label %36

36:                                               ; preds = %29, %10
  ret void
}

; Function Attrs: inlinehint nounwind uwtable
define internal ptr @Amap_ManCutNextP(ptr noundef %0) #3 {
  %2 = alloca ptr, align 8
  store ptr %0, ptr %2, align 8, !tbaa !26
  %3 = load ptr, ptr %2, align 8, !tbaa !26
  %4 = load ptr, ptr %2, align 8, !tbaa !26
  %5 = load i32, ptr %4, align 4
  %6 = lshr i32 %5, 17
  %7 = sext i32 %6 to i64
  %8 = getelementptr inbounds i32, ptr %3, i64 %7
  %9 = getelementptr inbounds i32, ptr %8, i64 1
  ret ptr %9
}

; Function Attrs: inlinehint nounwind uwtable
define internal void @Vec_IntPushOrder(ptr noundef %0, i32 noundef %1) #3 {
  %3 = alloca ptr, align 8
  %4 = alloca i32, align 4
  %5 = alloca i32, align 4
  store ptr %0, ptr %3, align 8, !tbaa !43
  store i32 %1, ptr %4, align 4, !tbaa !8
  call void @llvm.lifetime.start.p0(i64 4, ptr %5) #10
  %6 = load ptr, ptr %3, align 8, !tbaa !43
  %7 = getelementptr inbounds nuw %struct.Vec_Int_t_, ptr %6, i32 0, i32 1
  %8 = load i32, ptr %7, align 4, !tbaa !44
  %9 = load ptr, ptr %3, align 8, !tbaa !43
  %10 = getelementptr inbounds nuw %struct.Vec_Int_t_, ptr %9, i32 0, i32 0
  %11 = load i32, ptr %10, align 8, !tbaa !46
  %12 = icmp eq i32 %8, %11
  br i1 %12, label %13, label %27

13:                                               ; preds = %2
  %14 = load ptr, ptr %3, align 8, !tbaa !43
  %15 = getelementptr inbounds nuw %struct.Vec_Int_t_, ptr %14, i32 0, i32 0
  %16 = load i32, ptr %15, align 8, !tbaa !46
  %17 = icmp slt i32 %16, 16
  br i1 %17, label %18, label %20

18:                                               ; preds = %13
  %19 = load ptr, ptr %3, align 8, !tbaa !43
  call void @Vec_IntGrow(ptr noundef %19, i32 noundef 16)
  br label %26

20:                                               ; preds = %13
  %21 = load ptr, ptr %3, align 8, !tbaa !43
  %22 = load ptr, ptr %3, align 8, !tbaa !43
  %23 = getelementptr inbounds nuw %struct.Vec_Int_t_, ptr %22, i32 0, i32 0
  %24 = load i32, ptr %23, align 8, !tbaa !46
  %25 = mul nsw i32 2, %24
  call void @Vec_IntGrow(ptr noundef %21, i32 noundef %25)
  br label %26

26:                                               ; preds = %20, %18
  br label %27

27:                                               ; preds = %26, %2
  %28 = load ptr, ptr %3, align 8, !tbaa !43
  %29 = getelementptr inbounds nuw %struct.Vec_Int_t_, ptr %28, i32 0, i32 1
  %30 = load i32, ptr %29, align 4, !tbaa !44
  %31 = add nsw i32 %30, 1
  store i32 %31, ptr %29, align 4, !tbaa !44
  %32 = load ptr, ptr %3, align 8, !tbaa !43
  %33 = getelementptr inbounds nuw %struct.Vec_Int_t_, ptr %32, i32 0, i32 1
  %34 = load i32, ptr %33, align 4, !tbaa !44
  %35 = sub nsw i32 %34, 2
  store i32 %35, ptr %5, align 4, !tbaa !8
  br label %36

36:                                               ; preds = %66, %27
  %37 = load i32, ptr %5, align 4, !tbaa !8
  %38 = icmp sge i32 %37, 0
  br i1 %38, label %39, label %69

39:                                               ; preds = %36
  %40 = load ptr, ptr %3, align 8, !tbaa !43
  %41 = getelementptr inbounds nuw %struct.Vec_Int_t_, ptr %40, i32 0, i32 2
  %42 = load ptr, ptr %41, align 8, !tbaa !47
  %43 = load i32, ptr %5, align 4, !tbaa !8
  %44 = sext i32 %43 to i64
  %45 = getelementptr inbounds i32, ptr %42, i64 %44
  %46 = load i32, ptr %45, align 4, !tbaa !8
  %47 = load i32, ptr %4, align 4, !tbaa !8
  %48 = icmp sgt i32 %46, %47
  br i1 %48, label %49, label %64

49:                                               ; preds = %39
  %50 = load ptr, ptr %3, align 8, !tbaa !43
  %51 = getelementptr inbounds nuw %struct.Vec_Int_t_, ptr %50, i32 0, i32 2
  %52 = load ptr, ptr %51, align 8, !tbaa !47
  %53 = load i32, ptr %5, align 4, !tbaa !8
  %54 = sext i32 %53 to i64
  %55 = getelementptr inbounds i32, ptr %52, i64 %54
  %56 = load i32, ptr %55, align 4, !tbaa !8
  %57 = load ptr, ptr %3, align 8, !tbaa !43
  %58 = getelementptr inbounds nuw %struct.Vec_Int_t_, ptr %57, i32 0, i32 2
  %59 = load ptr, ptr %58, align 8, !tbaa !47
  %60 = load i32, ptr %5, align 4, !tbaa !8
  %61 = add nsw i32 %60, 1
  %62 = sext i32 %61 to i64
  %63 = getelementptr inbounds i32, ptr %59, i64 %62
  store i32 %56, ptr %63, align 4, !tbaa !8
  br label %65

64:                                               ; preds = %39
  br label %69

65:                                               ; preds = %49
  br label %66

66:                                               ; preds = %65
  %67 = load i32, ptr %5, align 4, !tbaa !8
  %68 = add nsw i32 %67, -1
  store i32 %68, ptr %5, align 4, !tbaa !8
  br label %36, !llvm.loop !48

69:                                               ; preds = %64, %36
  %70 = load i32, ptr %4, align 4, !tbaa !8
  %71 = load ptr, ptr %3, align 8, !tbaa !43
  %72 = getelementptr inbounds nuw %struct.Vec_Int_t_, ptr %71, i32 0, i32 2
  %73 = load ptr, ptr %72, align 8, !tbaa !47
  %74 = load i32, ptr %5, align 4, !tbaa !8
  %75 = add nsw i32 %74, 1
  %76 = sext i32 %75 to i64
  %77 = getelementptr inbounds i32, ptr %73, i64 %76
  store i32 %70, ptr %77, align 4, !tbaa !8
  call void @llvm.lifetime.end.p0(i64 4, ptr %5) #10
  ret void
}

; Function Attrs: nounwind uwtable
define ptr @Amap_ManCutCreate(ptr noundef %0, ptr noundef %1, ptr noundef %2, i32 noundef %3) #0 {
  %5 = alloca ptr, align 8
  %6 = alloca ptr, align 8
  %7 = alloca ptr, align 8
  %8 = alloca i32, align 4
  %9 = alloca ptr, align 8
  %10 = alloca i32, align 4
  %11 = alloca i32, align 4
  %12 = alloca i32, align 4
  store ptr %0, ptr %5, align 8, !tbaa !3
  store ptr %1, ptr %6, align 8, !tbaa !26
  store ptr %2, ptr %7, align 8, !tbaa !26
  store i32 %3, ptr %8, align 4, !tbaa !8
  call void @llvm.lifetime.start.p0(i64 8, ptr %9) #10
  call void @llvm.lifetime.start.p0(i64 4, ptr %10) #10
  call void @llvm.lifetime.start.p0(i64 4, ptr %11) #10
  %13 = load ptr, ptr %6, align 8, !tbaa !26
  %14 = load i32, ptr %13, align 4
  %15 = lshr i32 %14, 17
  %16 = load ptr, ptr %7, align 8, !tbaa !26
  %17 = load i32, ptr %16, align 4
  %18 = lshr i32 %17, 17
  %19 = add nsw i32 %15, %18
  store i32 %19, ptr %11, align 4, !tbaa !8
  call void @llvm.lifetime.start.p0(i64 4, ptr %12) #10
  %20 = load i32, ptr %11, align 4, !tbaa !8
  %21 = sext i32 %20 to i64
  %22 = mul i64 4, %21
  %23 = add i64 4, %22
  %24 = add i64 %23, 8
  %25 = trunc i64 %24 to i32
  store i32 %25, ptr %12, align 4, !tbaa !8
  %26 = load ptr, ptr %5, align 8, !tbaa !3
  %27 = getelementptr inbounds nuw %struct.Amap_Man_t_, ptr %26, i32 0, i32 12
  %28 = load ptr, ptr %27, align 8, !tbaa !40
  %29 = load i32, ptr %12, align 4, !tbaa !8
  %30 = call ptr @Aig_MmFlexEntryFetch(ptr noundef %28, i32 noundef %29)
  store ptr %30, ptr %9, align 8, !tbaa !26
  %31 = load i32, ptr %8, align 4, !tbaa !8
  %32 = load ptr, ptr %9, align 8, !tbaa !26
  %33 = load i32, ptr %32, align 4
  %34 = and i32 %31, 65535
  %35 = and i32 %33, -65536
  %36 = or i32 %35, %34
  store i32 %36, ptr %32, align 4
  %37 = load ptr, ptr %9, align 8, !tbaa !26
  %38 = load i32, ptr %37, align 4
  %39 = and i32 %38, -65537
  %40 = or i32 %39, 0
  store i32 %40, ptr %37, align 4
  %41 = load i32, ptr %11, align 4, !tbaa !8
  %42 = load ptr, ptr %9, align 8, !tbaa !26
  %43 = load i32, ptr %42, align 4
  %44 = and i32 %41, 32767
  %45 = shl i32 %44, 17
  %46 = and i32 %43, 131071
  %47 = or i32 %46, %45
  store i32 %47, ptr %42, align 4
  store i32 0, ptr %10, align 4, !tbaa !8
  br label %48

48:                                               ; preds = %66, %4
  %49 = load i32, ptr %10, align 4, !tbaa !8
  %50 = load ptr, ptr %6, align 8, !tbaa !26
  %51 = load i32, ptr %50, align 4
  %52 = lshr i32 %51, 17
  %53 = icmp slt i32 %49, %52
  br i1 %53, label %54, label %69

54:                                               ; preds = %48
  %55 = load ptr, ptr %6, align 8, !tbaa !26
  %56 = getelementptr inbounds nuw %struct.Amap_Cut_t_, ptr %55, i32 0, i32 1
  %57 = load i32, ptr %10, align 4, !tbaa !8
  %58 = sext i32 %57 to i64
  %59 = getelementptr inbounds [0 x i32], ptr %56, i64 0, i64 %58
  %60 = load i32, ptr %59, align 4, !tbaa !8
  %61 = load ptr, ptr %9, align 8, !tbaa !26
  %62 = getelementptr inbounds nuw %struct.Amap_Cut_t_, ptr %61, i32 0, i32 1
  %63 = load i32, ptr %10, align 4, !tbaa !8
  %64 = sext i32 %63 to i64
  %65 = getelementptr inbounds [0 x i32], ptr %62, i64 0, i64 %64
  store i32 %60, ptr %65, align 4, !tbaa !8
  br label %66

66:                                               ; preds = %54
  %67 = load i32, ptr %10, align 4, !tbaa !8
  %68 = add nsw i32 %67, 1
  store i32 %68, ptr %10, align 4, !tbaa !8
  br label %48, !llvm.loop !49

69:                                               ; preds = %48
  store i32 0, ptr %10, align 4, !tbaa !8
  br label %70

70:                                               ; preds = %92, %69
  %71 = load i32, ptr %10, align 4, !tbaa !8
  %72 = load ptr, ptr %7, align 8, !tbaa !26
  %73 = load i32, ptr %72, align 4
  %74 = lshr i32 %73, 17
  %75 = icmp slt i32 %71, %74
  br i1 %75, label %76, label %95

76:                                               ; preds = %70
  %77 = load ptr, ptr %7, align 8, !tbaa !26
  %78 = getelementptr inbounds nuw %struct.Amap_Cut_t_, ptr %77, i32 0, i32 1
  %79 = load i32, ptr %10, align 4, !tbaa !8
  %80 = sext i32 %79 to i64
  %81 = getelementptr inbounds [0 x i32], ptr %78, i64 0, i64 %80
  %82 = load i32, ptr %81, align 4, !tbaa !8
  %83 = load ptr, ptr %9, align 8, !tbaa !26
  %84 = getelementptr inbounds nuw %struct.Amap_Cut_t_, ptr %83, i32 0, i32 1
  %85 = load ptr, ptr %6, align 8, !tbaa !26
  %86 = load i32, ptr %85, align 4
  %87 = lshr i32 %86, 17
  %88 = load i32, ptr %10, align 4, !tbaa !8
  %89 = add nsw i32 %87, %88
  %90 = sext i32 %89 to i64
  %91 = getelementptr inbounds [0 x i32], ptr %84, i64 0, i64 %90
  store i32 %82, ptr %91, align 4, !tbaa !8
  br label %92

92:                                               ; preds = %76
  %93 = load i32, ptr %10, align 4, !tbaa !8
  %94 = add nsw i32 %93, 1
  store i32 %94, ptr %10, align 4, !tbaa !8
  br label %70, !llvm.loop !50

95:                                               ; preds = %70
  %96 = load ptr, ptr %5, align 8, !tbaa !3
  %97 = getelementptr inbounds nuw %struct.Amap_Man_t_, ptr %96, i32 0, i32 20
  %98 = load ptr, ptr %97, align 8, !tbaa !41
  %99 = load ptr, ptr %9, align 8, !tbaa !26
  %100 = load i32, ptr %99, align 4
  %101 = and i32 %100, 65535
  %102 = zext i32 %101 to i64
  %103 = getelementptr inbounds nuw ptr, ptr %98, i64 %102
  %104 = load ptr, ptr %103, align 8, !tbaa !26
  %105 = icmp eq ptr %104, null
  br i1 %105, label %106, label %113

106:                                              ; preds = %95
  %107 = load ptr, ptr %5, align 8, !tbaa !3
  %108 = getelementptr inbounds nuw %struct.Amap_Man_t_, ptr %107, i32 0, i32 18
  %109 = load ptr, ptr %108, align 8, !tbaa !42
  %110 = load ptr, ptr %9, align 8, !tbaa !26
  %111 = load i32, ptr %110, align 4
  %112 = and i32 %111, 65535
  call void @Vec_IntPushOrder(ptr noundef %109, i32 noundef %112)
  br label %113

113:                                              ; preds = %106, %95
  %114 = load ptr, ptr %5, align 8, !tbaa !3
  %115 = getelementptr inbounds nuw %struct.Amap_Man_t_, ptr %114, i32 0, i32 20
  %116 = load ptr, ptr %115, align 8, !tbaa !41
  %117 = load ptr, ptr %9, align 8, !tbaa !26
  %118 = load i32, ptr %117, align 4
  %119 = and i32 %118, 65535
  %120 = zext i32 %119 to i64
  %121 = getelementptr inbounds nuw ptr, ptr %116, i64 %120
  %122 = load ptr, ptr %121, align 8, !tbaa !26
  %123 = load ptr, ptr %9, align 8, !tbaa !26
  %124 = call ptr @Amap_ManCutNextP(ptr noundef %123)
  store ptr %122, ptr %124, align 8, !tbaa !26
  %125 = load ptr, ptr %9, align 8, !tbaa !26
  %126 = load ptr, ptr %5, align 8, !tbaa !3
  %127 = getelementptr inbounds nuw %struct.Amap_Man_t_, ptr %126, i32 0, i32 20
  %128 = load ptr, ptr %127, align 8, !tbaa !41
  %129 = load ptr, ptr %9, align 8, !tbaa !26
  %130 = load i32, ptr %129, align 4
  %131 = and i32 %130, 65535
  %132 = zext i32 %131 to i64
  %133 = getelementptr inbounds nuw ptr, ptr %128, i64 %132
  store ptr %125, ptr %133, align 8, !tbaa !26
  %134 = load ptr, ptr %9, align 8, !tbaa !26
  call void @llvm.lifetime.end.p0(i64 4, ptr %12) #10
  call void @llvm.lifetime.end.p0(i64 4, ptr %11) #10
  call void @llvm.lifetime.end.p0(i64 4, ptr %10) #10
  call void @llvm.lifetime.end.p0(i64 8, ptr %9) #10
  ret ptr %134
}