; Function Attrs: nounwind uwtable
define noundef ptr @Amap_ManCutCreate(ptr noundef readonly captures(none) %0, ptr noundef readonly captures(none) %1, ptr noundef readonly captures(none) %2, i32 noundef %3) local_unnamed_addr #3 {
  %5 = load i32, ptr %1, align 4
  %6 = lshr i32 %5, 17
  %7 = load i32, ptr %2, align 4
  %8 = lshr i32 %7, 17
  %9 = add nuw nsw i32 %8, %6
  %10 = shl nuw nsw i32 %9, 2
  %narrow = add nuw nsw i32 %10, 12
  %11 = getelementptr inbounds nuw i8, ptr %0, i64 80
  %12 = load ptr, ptr %11, align 8, !tbaa !33
  %13 = tail call ptr @Aig_MmFlexEntryFetch(ptr noundef %12, i32 noundef %narrow) #16
  %14 = and i32 %3, 65535
  %15 = shl i32 %9, 17
  %16 = or disjoint i32 %15, %14
  store i32 %16, ptr %13, align 4
  %17 = load i32, ptr %1, align 4
  %.not = icmp ult i32 %17, 131072
  br i1 %.not, label %.preheader, label %.lr.ph

.lr.ph:                                           ; preds = %4
  %18 = getelementptr inbounds nuw i8, ptr %1, i64 4
  %19 = getelementptr inbounds nuw i8, ptr %13, i64 4
  br label %23

.preheader:                                       ; preds = %23, %4
  %20 = load i32, ptr %2, align 4
  %.not39 = icmp ult i32 %20, 131072
  br i1 %.not39, label %._crit_edge, label %.lr.ph38

.lr.ph38:                                         ; preds = %.preheader
  %21 = getelementptr inbounds nuw i8, ptr %2, i64 4
  %22 = getelementptr inbounds nuw i8, ptr %13, i64 4
  br label %31

23:                                               ; preds = %.lr.ph, %23
  %indvars.iv = phi i64 [ 0, %.lr.ph ], [ %indvars.iv.next, %23 ]
  %24 = getelementptr inbounds nuw [0 x i32], ptr %18, i64 0, i64 %indvars.iv
  %25 = load i32, ptr %24, align 4, !tbaa !3
  %26 = getelementptr inbounds nuw [0 x i32], ptr %19, i64 0, i64 %indvars.iv
  store i32 %25, ptr %26, align 4, !tbaa !3
  %indvars.iv.next = add nuw nsw i64 %indvars.iv, 1
  %27 = load i32, ptr %1, align 4
  %28 = lshr i32 %27, 17
  %29 = zext nneg i32 %28 to i64
  %30 = icmp samesign ult i64 %indvars.iv.next, %29
  br i1 %30, label %23, label %.preheader, !llvm.loop !42

31:                                               ; preds = %.lr.ph38, %31
  %indvars.iv42 = phi i64 [ 0, %.lr.ph38 ], [ %indvars.iv.next43, %31 ]
  %32 = getelementptr inbounds nuw [0 x i32], ptr %21, i64 0, i64 %indvars.iv42
  %33 = load i32, ptr %32, align 4, !tbaa !3
  %34 = load i32, ptr %1, align 4
  %35 = lshr i32 %34, 17
  %36 = zext nneg i32 %35 to i64
  %37 = add nuw nsw i64 %indvars.iv42, %36
  %38 = getelementptr inbounds nuw [0 x i32], ptr %22, i64 0, i64 %37
  store i32 %33, ptr %38, align 4, !tbaa !3
  %indvars.iv.next43 = add nuw nsw i64 %indvars.iv42, 1
  %39 = load i32, ptr %2, align 4
  %40 = lshr i32 %39, 17
  %41 = zext nneg i32 %40 to i64
  %42 = icmp samesign ult i64 %indvars.iv.next43, %41
  br i1 %42, label %31, label %._crit_edge, !llvm.loop !43

._crit_edge:                                      ; preds = %31, %.preheader
  %43 = getelementptr inbounds nuw i8, ptr %0, i64 152
  %44 = load ptr, ptr %43, align 8, !tbaa !34
  %45 = zext nneg i32 %14 to i64
  %46 = getelementptr inbounds nuw ptr, ptr %44, i64 %45
  %47 = load ptr, ptr %46, align 8, !tbaa !35
  %48 = icmp eq ptr %47, null
  br i1 %48, label %49, label %94

49:                                               ; preds = %._crit_edge
  %50 = getelementptr inbounds nuw i8, ptr %0, i64 136
  %51 = load ptr, ptr %50, align 8, !tbaa !36
  %52 = getelementptr inbounds nuw i8, ptr %51, i64 4
  %53 = load i32, ptr %52, align 4, !tbaa !37
  %54 = load i32, ptr %51, align 8, !tbaa !39
  %55 = icmp eq i32 %53, %54
  br i1 %55, label %56, label %.Vec_IntGrow.exit23.i_crit_edge

.Vec_IntGrow.exit23.i_crit_edge:                  ; preds = %49
  %.phi.trans.insert = getelementptr inbounds nuw i8, ptr %51, i64 8
  %.pre = load ptr, ptr %.phi.trans.insert, align 8, !tbaa !40
  br label %Vec_IntGrow.exit23.i

56:                                               ; preds = %49
  %57 = icmp slt i32 %53, 16
  br i1 %57, label %58, label %66

58:                                               ; preds = %56
  %59 = getelementptr inbounds nuw i8, ptr %51, i64 8
  %60 = load ptr, ptr %59, align 8, !tbaa !40
  %.not9.i.i = icmp eq ptr %60, null
  br i1 %.not9.i.i, label %63, label %61

61:                                               ; preds = %58
  %62 = tail call dereferenceable_or_null(64) ptr @realloc(ptr noundef nonnull %60, i64 noundef 64) #17
  br label %Vec_IntGrow.exit.i

63:                                               ; preds = %58
  %64 = tail call noalias dereferenceable_or_null(64) ptr @malloc(i64 noundef 64) #15
  br label %Vec_IntGrow.exit.i

Vec_IntGrow.exit.i:                               ; preds = %63, %61
  %65 = phi ptr [ %62, %61 ], [ %64, %63 ]
  store ptr %65, ptr %59, align 8, !tbaa !40
  br label %Vec_IntGrow.exit23thread-pre-split.i

66:                                               ; preds = %56
  %67 = shl nuw nsw i32 %53, 1
  %68 = getelementptr inbounds nuw i8, ptr %51, i64 8
  %69 = load ptr, ptr %68, align 8, !tbaa !40
  %.not9.i22.i = icmp eq ptr %69, null
  %70 = zext nneg i32 %67 to i64
  %71 = shl nuw nsw i64 %70, 2
  br i1 %.not9.i22.i, label %74, label %72

72:                                               ; preds = %66
  %73 = tail call ptr @realloc(ptr noundef nonnull %69, i64 noundef %71) #17
  br label %76

74:                                               ; preds = %66
  %75 = tail call noalias ptr @malloc(i64 noundef %71) #15
  br label %76

76:                                               ; preds = %74, %72
  %77 = phi ptr [ %73, %72 ], [ %75, %74 ]
  store ptr %77, ptr %68, align 8, !tbaa !40
  br label %Vec_IntGrow.exit23thread-pre-split.i

Vec_IntGrow.exit23thread-pre-split.i:             ; preds = %76, %Vec_IntGrow.exit.i
  %78 = phi ptr [ %65, %Vec_IntGrow.exit.i ], [ %77, %76 ]
  %.sink.i = phi i32 [ 16, %Vec_IntGrow.exit.i ], [ %67, %76 ]
  store i32 %.sink.i, ptr %51, align 8, !tbaa !39
  %.pr.i = load i32, ptr %52, align 4, !tbaa !37
  br label %Vec_IntGrow.exit23.i

Vec_IntGrow.exit23.i:                             ; preds = %.Vec_IntGrow.exit23.i_crit_edge, %Vec_IntGrow.exit23thread-pre-split.i
  %79 = phi ptr [ %78, %Vec_IntGrow.exit23thread-pre-split.i ], [ %.pre, %.Vec_IntGrow.exit23.i_crit_edge ]
  %80 = phi i32 [ %.pr.i, %Vec_IntGrow.exit23thread-pre-split.i ], [ %53, %.Vec_IntGrow.exit23.i_crit_edge ]
  %81 = add nsw i32 %80, 1
  store i32 %81, ptr %52, align 4, !tbaa !37
  %82 = icmp sgt i32 %80, 0
  br i1 %82, label %.lr.ph.i, label %Vec_IntPushOrder.exit

.lr.ph.i:                                         ; preds = %Vec_IntGrow.exit23.i
  %83 = zext nneg i32 %80 to i64
  br label %84

84:                                               ; preds = %88, %.lr.ph.i
  %indvars.iv.i = phi i64 [ %83, %.lr.ph.i ], [ %indvars.iv.next.i, %88 ]
  %indvars.iv.next.i = add nsw i64 %indvars.iv.i, -1
  %85 = getelementptr inbounds nuw i32, ptr %79, i64 %indvars.iv.next.i
  %86 = load i32, ptr %85, align 4, !tbaa !3
  %87 = icmp sgt i32 %86, %14
  br i1 %87, label %88, label %._crit_edge.loopexit.split.loop.exit.i

88:                                               ; preds = %84
  %89 = getelementptr inbounds nuw i32, ptr %79, i64 %indvars.iv.i
  store i32 %86, ptr %89, align 4, !tbaa !3
  %90 = icmp samesign ugt i64 %indvars.iv.i, 1
  br i1 %90, label %84, label %Vec_IntPushOrder.exit, !llvm.loop !41

._crit_edge.loopexit.split.loop.exit.i:           ; preds = %84
  %91 = trunc nuw nsw i64 %indvars.iv.i to i32
  br label %Vec_IntPushOrder.exit

Vec_IntPushOrder.exit:                            ; preds = %88, %Vec_IntGrow.exit23.i, %._crit_edge.loopexit.split.loop.exit.i
  %.0.in.lcssa.i = phi i32 [ %80, %Vec_IntGrow.exit23.i ], [ %91, %._crit_edge.loopexit.split.loop.exit.i ], [ 0, %88 ]
  %92 = sext i32 %.0.in.lcssa.i to i64
  %93 = getelementptr inbounds i32, ptr %79, i64 %92
  store i32 %14, ptr %93, align 4, !tbaa !3
  %.pre45 = load ptr, ptr %43, align 8, !tbaa !34
  %.pre46 = load i32, ptr %13, align 4
  br label %94

94:                                               ; preds = %Vec_IntPushOrder.exit, %._crit_edge
  %95 = phi i32 [ %.pre46, %Vec_IntPushOrder.exit ], [ %16, %._crit_edge ]
  %96 = phi ptr [ %.pre45, %Vec_IntPushOrder.exit ], [ %44, %._crit_edge ]
  %97 = and i32 %95, 65535
  %98 = zext nneg i32 %97 to i64
  %99 = getelementptr inbounds nuw ptr, ptr %96, i64 %98
  %100 = load ptr, ptr %99, align 8, !tbaa !35
  %101 = lshr i32 %95, 17
  %102 = zext nneg i32 %101 to i64
  %103 = getelementptr inbounds nuw i32, ptr %13, i64 %102
  %104 = getelementptr inbounds nuw i8, ptr %103, i64 4
  store ptr %100, ptr %104, align 8, !tbaa !35
  store ptr %13, ptr %99, align 8, !tbaa !35
  ret ptr %13
}